target datalayout = "e-m:e-p270:32:32-p271:32:32-p272:64:64-i64:64-i128:128-f80:128-n8:16:32:64-S128"
target triple = "x86_64-pc-linux-gnu"

%struct.gstack_s = type { ptr, ptr, %struct.list_s, %struct.list_s, %struct.list_s, ptr }
%struct.list_s = type { ptr, ptr }
%struct.item_s = type { i32, %union.s, ptr, ptr }
%union.s = type { ptr }
%struct.dtlink_s_ = type { ptr, %union.anon }
%union.anon = type { ptr }
%struct.Agobj_s = type { %struct.Agtag_s, ptr }
%struct.Agtag_s = type { i32, i64 }
%struct.Agedge_s = type { %struct.Agobj_s, %struct.dtlink_s_, %struct.dtlink_s_, ptr }

@S = internal global ptr null, align 8
@.str.12 = private unnamed_addr constant [1 x i8] zeroinitializer, align 1
@.str.14 = private unnamed_addr constant [9 x i8] c"tailport\00", align 1
@.str.15 = private unnamed_addr constant [9 x i8] c"headport\00", align 1

; Function Attrs: nounwind uwtable
define internal void @applyattrs(ptr noundef %0) #0 {
  %2 = alloca ptr, align 8
  %3 = alloca ptr, align 8
  store ptr %0, ptr %2, align 8, !tbaa !64
  call void @llvm.lifetime.start.p0(i64 8, ptr %3) #14
  %4 = load ptr, ptr @S, align 8, !tbaa !22
  %5 = getelementptr inbounds nuw %struct.gstack_s, ptr %4, i32 0, i32 4
  %6 = getelementptr inbounds nuw %struct.list_s, ptr %5, i32 0, i32 0
  %7 = load ptr, ptr %6, align 8, !tbaa !31
  store ptr %7, ptr %3, align 8, !tbaa !35
  br label %8

8:                                                ; preds = %49, %1
  %9 = load ptr, ptr %3, align 8, !tbaa !35
  %10 = icmp ne ptr %9, null
  br i1 %10, label %11, label %53

11:                                               ; preds = %8
  %12 = load ptr, ptr %3, align 8, !tbaa !35
  %13 = getelementptr inbounds nuw %struct.item_s, ptr %12, i32 0, i32 0
  %14 = load i32, ptr %13, align 8, !tbaa !36
  %15 = icmp eq i32 %14, 266
  br i1 %15, label %16, label %47

16:                                               ; preds = %11
  %17 = load ptr, ptr %3, align 8, !tbaa !35
  %18 = getelementptr inbounds nuw %struct.item_s, ptr %17, i32 0, i32 1
  %19 = load ptr, ptr %18, align 8, !tbaa !14
  %20 = icmp ne ptr %19, null
  br i1 %20, label %21, label %46

21:                                               ; preds = %16
  %22 = load ptr, ptr %3, align 8, !tbaa !35
  %23 = getelementptr inbounds nuw %struct.item_s, ptr %22, i32 0, i32 2
  %24 = load ptr, ptr %23, align 8, !tbaa !38
  %25 = call i32 @aghtmlstr(ptr noundef %24)
  %26 = icmp ne i32 %25, 0
  br i1 %26, label %27, label %36

27:                                               ; preds = %21
  %28 = load ptr, ptr %2, align 8, !tbaa !64
  %29 = load ptr, ptr %3, align 8, !tbaa !35
  %30 = getelementptr inbounds nuw %struct.item_s, ptr %29, i32 0, i32 1
  %31 = load ptr, ptr %30, align 8, !tbaa !14
  %32 = load ptr, ptr %3, align 8, !tbaa !35
  %33 = getelementptr inbounds nuw %struct.item_s, ptr %32, i32 0, i32 2
  %34 = load ptr, ptr %33, align 8, !tbaa !38
  %35 = call i32 @agxset_html(ptr noundef %28, ptr noundef %31, ptr noundef %34)
  br label %45

36:                                               ; preds = %21
  %37 = load ptr, ptr %2, align 8, !tbaa !64
  %38 = load ptr, ptr %3, align 8, !tbaa !35
  %39 = getelementptr inbounds nuw %struct.item_s, ptr %38, i32 0, i32 1
  %40 = load ptr, ptr %39, align 8, !tbaa !14
  %41 = load ptr, ptr %3, align 8, !tbaa !35
  %42 = getelementptr inbounds nuw %struct.item_s, ptr %41, i32 0, i32 2
  %43 = load ptr, ptr %42, align 8, !tbaa !38
  %44 = call i32 @agxset(ptr noundef %37, ptr noundef %40, ptr noundef %43)
  br label %45

45:                                               ; preds = %36, %27
  br label %46

46:                                               ; preds = %45, %16
  br label %48

47:                                               ; preds = %11
  br label %48

48:                                               ; preds = %47, %46
  br label %49

49:                                               ; preds = %48
  %50 = load ptr, ptr %3, align 8, !tbaa !35
  %51 = getelementptr inbounds nuw %struct.item_s, ptr %50, i32 0, i32 3
  %52 = load ptr, ptr %51, align 8, !tbaa !39
  store ptr %52, ptr %3, align 8, !tbaa !35
  br label %8, !llvm.loop !73

53:                                               ; preds = %8
  call void @llvm.lifetime.end.p0(i64 8, ptr %3) #14
  ret void
}

; Function Attrs: nounwind uwtable
define internal void @mkport(ptr noundef %0, ptr noundef %1, ptr noundef %2) #0 {
  %4 = alloca ptr, align 8
  %5 = alloca ptr, align 8
  %6 = alloca ptr, align 8
  %7 = alloca ptr, align 8
  store ptr %0, ptr %4, align 8, !tbaa !76
  store ptr %1, ptr %5, align 8, !tbaa !9
  store ptr %2, ptr %6, align 8, !tbaa !9
  call void @llvm.lifetime.start.p0(i64 8, ptr %7) #14
  %8 = load ptr, ptr %6, align 8, !tbaa !9
  %9 = icmp ne ptr %8, null
  br i1 %9, label %10, label %28

10:                                               ; preds = %3
  %11 = load ptr, ptr @S, align 8, !tbaa !22
  %12 = getelementptr inbounds nuw %struct.gstack_s, ptr %11, i32 0, i32 0
  %13 = load ptr, ptr %12, align 8, !tbaa !44
  %14 = load ptr, ptr %5, align 8, !tbaa !9
  %15 = call ptr @agattr(ptr noundef %13, i32 noundef 2, ptr noundef %14, ptr noundef null)
  store ptr %15, ptr %7, align 8, !tbaa !60
  %16 = icmp eq ptr %15, null
  br i1 %16, label %17, label %23

17:                                               ; preds = %10
  %18 = load ptr, ptr @S, align 8, !tbaa !22
  %19 = getelementptr inbounds nuw %struct.gstack_s, ptr %18, i32 0, i32 0
  %20 = load ptr, ptr %19, align 8, !tbaa !44
  %21 = load ptr, ptr %5, align 8, !tbaa !9
  %22 = call ptr @agattr(ptr noundef %20, i32 noundef 2, ptr noundef %21, ptr noundef @.str.12)
  store ptr %22, ptr %7, align 8, !tbaa !60
  br label %23

23:                                               ; preds = %17, %10
  %24 = load ptr, ptr %4, align 8, !tbaa !76
  %25 = load ptr, ptr %7, align 8, !tbaa !60
  %26 = load ptr, ptr %6, align 8, !tbaa !9
  %27 = call i32 @agxset(ptr noundef %24, ptr noundef %25, ptr noundef %26)
  br label %28

28:                                               ; preds = %23, %3
  call void @llvm.lifetime.end.p0(i64 8, ptr %7) #14
  ret void
}

; Function Attrs: nounwind uwtable
define internal void @newedge(ptr noundef %0, ptr noundef %1, ptr noundef %2, ptr noundef %3, ptr noundef %4) #0 {
  %6 = alloca ptr, align 8
  %7 = alloca ptr, align 8
  %8 = alloca ptr, align 8
  %9 = alloca ptr, align 8
  %10 = alloca ptr, align 8
  %11 = alloca ptr, align 8
  %12 = alloca ptr, align 8
  %13 = alloca ptr, align 8
  %14 = alloca ptr, align 8
  store ptr %0, ptr %6, align 8, !tbaa !42
  store ptr %1, ptr %7, align 8, !tbaa !9
  store ptr %2, ptr %8, align 8, !tbaa !42
  store ptr %3, ptr %9, align 8, !tbaa !9
  store ptr %4, ptr %10, align 8, !tbaa !9
  call void @llvm.lifetime.start.p0(i64 8, ptr %11) #14
  %15 = load ptr, ptr @S, align 8, !tbaa !22
  %16 = getelementptr inbounds nuw %struct.gstack_s, ptr %15, i32 0, i32 0
  %17 = load ptr, ptr %16, align 8, !tbaa !44
  %18 = load ptr, ptr %6, align 8, !tbaa !42
  %19 = load ptr, ptr %8, align 8, !tbaa !42
  %20 = load ptr, ptr %10, align 8, !tbaa !9
  %21 = call ptr @agedge(ptr noundef %17, ptr noundef %18, ptr noundef %19, ptr noundef %20, i32 noundef 1)
  store ptr %21, ptr %11, align 8, !tbaa !76
  %22 = load ptr, ptr %11, align 8, !tbaa !76
  %23 = icmp ne ptr %22, null
  br i1 %23, label %24, label %83

24:                                               ; preds = %5
  call void @llvm.lifetime.start.p0(i64 8, ptr %12) #14
  %25 = load ptr, ptr %7, align 8, !tbaa !9
  store ptr %25, ptr %12, align 8, !tbaa !9
  call void @llvm.lifetime.start.p0(i64 8, ptr %13) #14
  %26 = load ptr, ptr %9, align 8, !tbaa !9
  store ptr %26, ptr %13, align 8, !tbaa !9
  %27 = load ptr, ptr %11, align 8, !tbaa !76
  %28 = getelementptr inbounds nuw %struct.Agobj_s, ptr %27, i32 0, i32 0
  %29 = load i32, ptr %28, align 8
  %30 = and i32 %29, 3
  %31 = icmp eq i32 %30, 3
  br i1 %31, label %32, label %34

32:                                               ; preds = %24
  %33 = load ptr, ptr %11, align 8, !tbaa !76
  br label %37

34:                                               ; preds = %24
  %35 = load ptr, ptr %11, align 8, !tbaa !76
  %36 = getelementptr inbounds %struct.Agedge_s, ptr %35, i64 1
  br label %37

37:                                               ; preds = %34, %32
  %38 = phi ptr [ %33, %32 ], [ %36, %34 ]
  %39 = getelementptr inbounds nuw %struct.Agedge_s, ptr %38, i32 0, i32 3
  %40 = load ptr, ptr %39, align 8, !tbaa !78
  %41 = load ptr, ptr %11, align 8, !tbaa !76
  %42 = getelementptr inbounds nuw %struct.Agobj_s, ptr %41, i32 0, i32 0
  %43 = load i32, ptr %42, align 8
  %44 = and i32 %43, 3
  %45 = icmp eq i32 %44, 2
  br i1 %45, label %46, label %48

46:                                               ; preds = %37
  %47 = load ptr, ptr %11, align 8, !tbaa !76
  br label %51

48:                                               ; preds = %37
  %49 = load ptr, ptr %11, align 8, !tbaa !76
  %50 = getelementptr inbounds %struct.Agedge_s, ptr %49, i64 -1
  br label %51

51:                                               ; preds = %48, %46
  %52 = phi ptr [ %47, %46 ], [ %50, %48 ]
  %53 = getelementptr inbounds nuw %struct.Agedge_s, ptr %52, i32 0, i32 3
  %54 = load ptr, ptr %53, align 8, !tbaa !78
  %55 = icmp ne ptr %40, %54
  br i1 %55, label %56, label %77

56:                                               ; preds = %51
  %57 = load ptr, ptr %11, align 8, !tbaa !76
  %58 = getelementptr inbounds nuw %struct.Agobj_s, ptr %57, i32 0, i32 0
  %59 = load i32, ptr %58, align 8
  %60 = and i32 %59, 3
  %61 = icmp eq i32 %60, 2
  br i1 %61, label %62, label %64

62:                                               ; preds = %56
  %63 = load ptr, ptr %11, align 8, !tbaa !76
  br label %67

64:                                               ; preds = %56
  %65 = load ptr, ptr %11, align 8, !tbaa !76
  %66 = getelementptr inbounds %struct.Agedge_s, ptr %65, i64 -1
  br label %67

67:                                               ; preds = %64, %62
  %68 = phi ptr [ %63, %62 ], [ %66, %64 ]
  %69 = getelementptr inbounds nuw %struct.Agedge_s, ptr %68, i32 0, i32 3
  %70 = load ptr, ptr %69, align 8, !tbaa !78
  %71 = load ptr, ptr %6, align 8, !tbaa !42
  %72 = icmp eq ptr %70, %71
  br i1 %72, label %73, label %77

73:                                               ; preds = %67
  call void @llvm.lifetime.start.p0(i64 8, ptr %14) #14
  %74 = load ptr, ptr %12, align 8, !tbaa !9
  store ptr %74, ptr %14, align 8, !tbaa !9
  %75 = load ptr, ptr %13, align 8, !tbaa !9
  store ptr %75, ptr %12, align 8, !tbaa !9
  %76 = load ptr, ptr %14, align 8, !tbaa !9
  store ptr %76, ptr %13, align 8, !tbaa !9
  call void @llvm.lifetime.end.p0(i64 8, ptr %14) #14
  br label %77

77:                                               ; preds = %73, %67, %51
  %78 = load ptr, ptr %11, align 8, !tbaa !76
  %79 = load ptr, ptr %12, align 8, !tbaa !9
  call void @mkport(ptr noundef %78, ptr noundef @.str.14, ptr noundef %79)
  %80 = load ptr, ptr %11, align 8, !tbaa !76
  %81 = load ptr, ptr %13, align 8, !tbaa !9
  call void @mkport(ptr noundef %80, ptr noundef @.str.15, ptr noundef %81)
  %82 = load ptr, ptr %11, align 8, !tbaa !76
  call void @applyattrs(ptr noundef %82)
  call void @llvm.lifetime.end.p0(i64 8, ptr %13) #14
  call void @llvm.lifetime.end.p0(i64 8, ptr %12) #14
  br label %83

83:                                               ; preds = %77, %5
  call void @llvm.lifetime.end.p0(i64 8, ptr %11) #14
  ret void
}