; Function Attrs: nounwind uwtable
define internal fastcc void @newedge(ptr noundef %0, ptr noundef %1, ptr noundef %2, ptr noundef %3, ptr noundef %4) unnamed_addr #0 {
  %6 = load ptr, ptr @S, align 8, !tbaa !8
  %7 = load ptr, ptr %6, align 8, !tbaa !24
  %8 = tail call ptr @agedge(ptr noundef %7, ptr noundef %0, ptr noundef %2, ptr noundef %4, i32 noundef 1) #19
  %.not = icmp eq ptr %8, null
  br i1 %.not, label %applyattrs.exit, label %9

9:                                                ; preds = %5
  %10 = load i32, ptr %8, align 8
  %11 = and i32 %10, 3
  %12 = icmp eq i32 %11, 3
  %.idx = select i1 %12, i64 0, i64 64
  %13 = getelementptr inbounds nuw i8, ptr %8, i64 %.idx
  %14 = getelementptr inbounds nuw i8, ptr %13, i64 56
  %15 = load ptr, ptr %14, align 8, !tbaa !53
  %16 = icmp eq i32 %11, 2
  %.idx27 = select i1 %16, i64 0, i64 -64
  %17 = getelementptr inbounds i8, ptr %8, i64 %.idx27
  %18 = getelementptr inbounds nuw i8, ptr %17, i64 56
  %19 = load ptr, ptr %18, align 8, !tbaa !53
  %.not28 = icmp ne ptr %15, %19
  %20 = icmp eq ptr %19, %0
  %or.cond = and i1 %.not28, %20
  %.024 = select i1 %or.cond, ptr %1, ptr %3
  %.0 = select i1 %or.cond, ptr %3, ptr %1
  %.not.i = icmp eq ptr %.0, null
  br i1 %.not.i, label %mkport.exit, label %21

21:                                               ; preds = %9
  %22 = load ptr, ptr @S, align 8, !tbaa !8
  %23 = load ptr, ptr %22, align 8, !tbaa !24
  %24 = tail call ptr @agattr(ptr noundef %23, i32 noundef 2, ptr noundef nonnull @.str.14, ptr noundef null) #19
  %25 = icmp eq ptr %24, null
  br i1 %25, label %26, label %30

26:                                               ; preds = %21
  %27 = load ptr, ptr @S, align 8, !tbaa !8
  %28 = load ptr, ptr %27, align 8, !tbaa !24
  %29 = tail call ptr @agattr(ptr noundef %28, i32 noundef 2, ptr noundef nonnull @.str.14, ptr noundef nonnull @.str.12) #19
  br label %30

30:                                               ; preds = %26, %21
  %.0.i = phi ptr [ %29, %26 ], [ %24, %21 ]
  %31 = tail call i32 @agxset(ptr noundef nonnull %8, ptr noundef %.0.i, ptr noundef nonnull %.0) #19
  br label %mkport.exit

mkport.exit:                                      ; preds = %9, %30
  %.not.i29 = icmp eq ptr %.024, null
  br i1 %.not.i29, label %mkport.exit31, label %32

32:                                               ; preds = %mkport.exit
  %33 = load ptr, ptr @S, align 8, !tbaa !8
  %34 = load ptr, ptr %33, align 8, !tbaa !24
  %35 = tail call ptr @agattr(ptr noundef %34, i32 noundef 2, ptr noundef nonnull @.str.15, ptr noundef null) #19
  %36 = icmp eq ptr %35, null
  br i1 %36, label %37, label %41

37:                                               ; preds = %32
  %38 = load ptr, ptr @S, align 8, !tbaa !8
  %39 = load ptr, ptr %38, align 8, !tbaa !24
  %40 = tail call ptr @agattr(ptr noundef %39, i32 noundef 2, ptr noundef nonnull @.str.15, ptr noundef nonnull @.str.12) #19
  br label %41

41:                                               ; preds = %37, %32
  %.0.i30 = phi ptr [ %40, %37 ], [ %35, %32 ]
  %42 = tail call i32 @agxset(ptr noundef nonnull %8, ptr noundef %.0.i30, ptr noundef nonnull %.024) #19
  br label %mkport.exit31

mkport.exit31:                                    ; preds = %mkport.exit, %41
  %43 = load ptr, ptr @S, align 8, !tbaa !8
  %44 = getelementptr inbounds nuw i8, ptr %43, i64 48
  %.013.i = load ptr, ptr %44, align 8, !tbaa !25
  %.not14.i = icmp eq ptr %.013.i, null
  br i1 %.not14.i, label %applyattrs.exit, label %.lr.ph.i

.lr.ph.i:                                         ; preds = %mkport.exit31, %60
  %.015.i = phi ptr [ %.0.i32, %60 ], [ %.013.i, %mkport.exit31 ]
  %45 = load i32, ptr %.015.i, align 8, !tbaa !26
  %46 = icmp eq i32 %45, 266
  br i1 %46, label %47, label %60

47:                                               ; preds = %.lr.ph.i
  %48 = getelementptr inbounds nuw i8, ptr %.015.i, i64 8
  %49 = load ptr, ptr %48, align 8, !tbaa !7
  %.not11.i = icmp eq ptr %49, null
  br i1 %.not11.i, label %60, label %50

50:                                               ; preds = %47
  %51 = getelementptr inbounds nuw i8, ptr %.015.i, i64 16
  %52 = load ptr, ptr %51, align 8, !tbaa !29
  %53 = tail call i32 @aghtmlstr(ptr noundef %52) #19
  %.not12.i = icmp eq i32 %53, 0
  %54 = load ptr, ptr %48, align 8, !tbaa !7
  %55 = load ptr, ptr %51, align 8, !tbaa !29
  br i1 %.not12.i, label %58, label %56

56:                                               ; preds = %50
  %57 = tail call i32 @agxset_html(ptr noundef nonnull %8, ptr noundef %54, ptr noundef %55) #19
  br label %60

58:                                               ; preds = %50
  %59 = tail call i32 @agxset(ptr noundef nonnull %8, ptr noundef %54, ptr noundef %55) #19
  br label %60

60:                                               ; preds = %58, %56, %47, %.lr.ph.i
  %61 = getelementptr inbounds nuw i8, ptr %.015.i, i64 24
  %.0.i32 = load ptr, ptr %61, align 8, !tbaa !25
  %.not.i33 = icmp eq ptr %.0.i32, null
  br i1 %.not.i33, label %applyattrs.exit, label %.lr.ph.i, !llvm.loop !32

applyattrs.exit:                                  ; preds = %60, %mkport.exit31, %5
  ret void
}